target datalayout = "e-m:e-p270:32:32-p271:32:32-p272:64:64-i64:64-i128:128-f80:128-n8:16:32:64-S128"
target triple = "x86_64-pc-linux-gnu"

%struct.pmix_class_t = type { ptr, ptr, ptr, ptr, i32, i32, ptr, ptr, i64 }
%union.pthread_mutex_t = type { %struct.__pthread_mutex_s }
%struct.__pthread_mutex_s = type { i32, i32, i32, i32, i32, i16, i16, %struct.__pthread_internal_list }
%struct.__pthread_internal_list = type { ptr, ptr }
%struct.pmix_tma = type { ptr, ptr, ptr, ptr, ptr, ptr, ptr, ptr }
%struct.pmix_object_t = type { %union.pthread_mutex_t, ptr, i32, %struct.pmix_tma }
%struct.pmix_mca_base_var_t = type { %struct.pmix_object_t, i32, i32, i32, ptr, ptr, ptr, ptr, %struct.pmix_value_array_t, i32, i32, i32, ptr, ptr, ptr, i32, ptr, ptr }
%struct.pmix_value_array_t = type { %struct.pmix_object_t, ptr, i64, i64, i64 }
%struct.pmix_mca_base_var_enum_t = type { %struct.pmix_object_t, i8, ptr, ptr, ptr, ptr, ptr, ptr, i32, ptr }

@.str.71 = private unnamed_addr constant [21 x i8] c"pthread_mutex_lock()\00", align 1

; Function Attrs: inlinehint nounwind uwtable
define internal void @pmix_tma_free(ptr noundef %0, ptr noundef %1) #6 {
  %3 = alloca ptr, align 8
  %4 = alloca ptr, align 8
  store ptr %0, ptr %3, align 8, !tbaa !55
  store ptr %1, ptr %4, align 8, !tbaa !65
  %5 = load ptr, ptr %3, align 8, !tbaa !55
  %6 = icmp ne ptr null, %5
  br i1 %6, label %7, label %13

7:                                                ; preds = %2
  %8 = load ptr, ptr %3, align 8, !tbaa !55
  %9 = getelementptr inbounds nuw %struct.pmix_tma, ptr %8, i32 0, i32 5
  %10 = load ptr, ptr %9, align 8, !tbaa !84
  %11 = load ptr, ptr %3, align 8, !tbaa !55
  %12 = load ptr, ptr %4, align 8, !tbaa !65
  call void %10(ptr noundef %11, ptr noundef %12)
  br label %15

13:                                               ; preds = %2
  %14 = load ptr, ptr %4, align 8, !tbaa !65
  call void @free(ptr noundef %14) #15
  br label %15

15:                                               ; preds = %13, %7
  ret void
}

; Function Attrs: inlinehint nounwind uwtable
define internal void @pmix_obj_run_destructors(ptr noundef %0) #6 {
  %2 = alloca ptr, align 8
  %3 = alloca ptr, align 8
  store ptr %0, ptr %2, align 8, !tbaa !32
  call void @llvm.lifetime.start.p0(i64 8, ptr %3) #15
  %4 = load ptr, ptr %2, align 8, !tbaa !32
  %5 = getelementptr inbounds nuw %struct.pmix_object_t, ptr %4, i32 0, i32 1
  %6 = load ptr, ptr %5, align 8, !tbaa !21
  %7 = getelementptr inbounds nuw %struct.pmix_class_t, ptr %6, i32 0, i32 7
  %8 = load ptr, ptr %7, align 8, !tbaa !82
  store ptr %8, ptr %3, align 8, !tbaa !65
  br label %9

9:                                                ; preds = %13, %1
  %10 = load ptr, ptr %3, align 8, !tbaa !65
  %11 = load ptr, ptr %10, align 8, !tbaa !65
  %12 = icmp ne ptr null, %11
  br i1 %12, label %13, label %19

13:                                               ; preds = %9
  %14 = load ptr, ptr %3, align 8, !tbaa !65
  %15 = load ptr, ptr %14, align 8, !tbaa !65
  %16 = load ptr, ptr %2, align 8, !tbaa !32
  call void %15(ptr noundef %16)
  %17 = load ptr, ptr %3, align 8, !tbaa !65
  %18 = getelementptr inbounds nuw ptr, ptr %17, i32 1
  store ptr %18, ptr %3, align 8, !tbaa !65
  br label %9, !llvm.loop !83

19:                                               ; preds = %9
  call void @llvm.lifetime.end.p0(i64 8, ptr %3) #15
  ret void
}

; Function Attrs: alwaysinline nounwind uwtable
define internal i32 @pmix_obj_update(ptr noundef %0, i32 noundef %1) #8 {
  %3 = alloca ptr, align 8
  %4 = alloca i32, align 4
  %5 = alloca i32, align 4
  store ptr %0, ptr %3, align 8, !tbaa !32
  store i32 %1, ptr %4, align 4, !tbaa !18
  call void @llvm.lifetime.start.p0(i64 4, ptr %5) #15
  %6 = load ptr, ptr %3, align 8, !tbaa !32
  %7 = getelementptr inbounds nuw %struct.pmix_object_t, ptr %6, i32 0, i32 0
  %8 = call i32 @pthread_mutex_lock(ptr noundef %7) #15
  store i32 %8, ptr %5, align 4, !tbaa !18
  %9 = load i32, ptr %5, align 4, !tbaa !18
  %10 = icmp eq i32 %9, 35
  br i1 %10, label %11, label %14

11:                                               ; preds = %2
  %12 = load i32, ptr %5, align 4, !tbaa !18
  %13 = call ptr @__errno_location() #19
  store i32 %12, ptr %13, align 4, !tbaa !18
  call void @perror(ptr noundef @.str.71)
  call void @abort() #20
  unreachable

14:                                               ; preds = %2
  %15 = load i32, ptr %4, align 4, !tbaa !18
  %16 = load ptr, ptr %3, align 8, !tbaa !32
  %17 = getelementptr inbounds nuw %struct.pmix_object_t, ptr %16, i32 0, i32 2
  %18 = load i32, ptr %17, align 8, !tbaa !22
  %19 = add nsw i32 %18, %15
  store i32 %19, ptr %17, align 8, !tbaa !22
  store i32 %19, ptr %5, align 4, !tbaa !18
  %20 = load ptr, ptr %3, align 8, !tbaa !32
  %21 = getelementptr inbounds nuw %struct.pmix_object_t, ptr %20, i32 0, i32 0
  %22 = call i32 @pthread_mutex_unlock(ptr noundef %21) #15
  %23 = load i32, ptr %5, align 4, !tbaa !18
  call void @llvm.lifetime.end.p0(i64 4, ptr %5) #15
  ret i32 %23
}

; Function Attrs: nounwind uwtable
define internal void @var_destructor(ptr noundef %0) #0 {
  %2 = alloca ptr, align 8
  %3 = alloca ptr, align 8
  store ptr %0, ptr %2, align 8, !tbaa !3
  %4 = load ptr, ptr %2, align 8, !tbaa !3
  %5 = getelementptr inbounds nuw %struct.pmix_mca_base_var_t, ptr %4, i32 0, i32 3
  %6 = load i32, ptr %5, align 8, !tbaa !8
  %7 = icmp eq i32 5, %6
  br i1 %7, label %13, label %8

8:                                                ; preds = %1
  %9 = load ptr, ptr %2, align 8, !tbaa !3
  %10 = getelementptr inbounds nuw %struct.pmix_mca_base_var_t, ptr %9, i32 0, i32 3
  %11 = load i32, ptr %10, align 8, !tbaa !8
  %12 = icmp eq i32 6, %11
  br i1 %12, label %13, label %32

13:                                               ; preds = %8, %1
  %14 = load ptr, ptr %2, align 8, !tbaa !3
  %15 = getelementptr inbounds nuw %struct.pmix_mca_base_var_t, ptr %14, i32 0, i32 16
  %16 = load ptr, ptr %15, align 8, !tbaa !23
  %17 = icmp ne ptr null, %16
  br i1 %17, label %18, label %32

18:                                               ; preds = %13
  %19 = load ptr, ptr %2, align 8, !tbaa !3
  %20 = getelementptr inbounds nuw %struct.pmix_mca_base_var_t, ptr %19, i32 0, i32 16
  %21 = load ptr, ptr %20, align 8, !tbaa !23
  %22 = load ptr, ptr %21, align 8, !tbaa !24
  %23 = icmp ne ptr null, %22
  br i1 %23, label %24, label %32

24:                                               ; preds = %18
  %25 = load ptr, ptr %2, align 8, !tbaa !3
  %26 = getelementptr inbounds nuw %struct.pmix_mca_base_var_t, ptr %25, i32 0, i32 16
  %27 = load ptr, ptr %26, align 8, !tbaa !23
  %28 = load ptr, ptr %27, align 8, !tbaa !24
  call void @free(ptr noundef %28) #15
  %29 = load ptr, ptr %2, align 8, !tbaa !3
  %30 = getelementptr inbounds nuw %struct.pmix_mca_base_var_t, ptr %29, i32 0, i32 16
  %31 = load ptr, ptr %30, align 8, !tbaa !23
  store ptr null, ptr %31, align 8, !tbaa !24
  br label %32

32:                                               ; preds = %24, %18, %13, %8
  %33 = load ptr, ptr %2, align 8, !tbaa !3
  %34 = getelementptr inbounds nuw %struct.pmix_mca_base_var_t, ptr %33, i32 0, i32 14
  %35 = load ptr, ptr %34, align 8, !tbaa !25
  %36 = icmp ne ptr %35, null
  br i1 %36, label %37, label %74

37:                                               ; preds = %32
  %38 = load ptr, ptr %2, align 8, !tbaa !3
  %39 = getelementptr inbounds nuw %struct.pmix_mca_base_var_t, ptr %38, i32 0, i32 14
  %40 = load ptr, ptr %39, align 8, !tbaa !25
  %41 = getelementptr inbounds nuw %struct.pmix_mca_base_var_enum_t, ptr %40, i32 0, i32 1
  %42 = load i8, ptr %41, align 8, !tbaa !26, !range !30, !noundef !31
  %43 = trunc i8 %42 to i1
  br i1 %43, label %74, label %44

44:                                               ; preds = %37
  br label %45

45:                                               ; preds = %44
  call void @llvm.lifetime.start.p0(i64 8, ptr %3) #15
  %46 = load ptr, ptr %2, align 8, !tbaa !3
  %47 = getelementptr inbounds nuw %struct.pmix_mca_base_var_t, ptr %46, i32 0, i32 14
  %48 = load ptr, ptr %47, align 8, !tbaa !25
  store ptr %48, ptr %3, align 8, !tbaa !32
  %49 = load ptr, ptr %3, align 8, !tbaa !32
  %50 = call i32 @pmix_obj_update(ptr noundef %49, i32 noundef -1)
  %51 = icmp eq i32 0, %50
  br i1 %51, label %52, label %72

52:                                               ; preds = %45
  %53 = load ptr, ptr %3, align 8, !tbaa !32
  call void @pmix_obj_run_destructors(ptr noundef %53)
  %54 = load ptr, ptr %3, align 8, !tbaa !32
  %55 = getelementptr inbounds nuw %struct.pmix_object_t, ptr %54, i32 0, i32 3
  %56 = getelementptr inbounds nuw %struct.pmix_tma, ptr %55, i32 0, i32 5
  %57 = load ptr, ptr %56, align 8, !tbaa !34
  %58 = icmp ne ptr null, %57
  br i1 %58, label %59, label %65

59:                                               ; preds = %52
  %60 = load ptr, ptr %3, align 8, !tbaa !32
  %61 = getelementptr inbounds nuw %struct.pmix_object_t, ptr %60, i32 0, i32 3
  %62 = load ptr, ptr %2, align 8, !tbaa !3
  %63 = getelementptr inbounds nuw %struct.pmix_mca_base_var_t, ptr %62, i32 0, i32 14
  %64 = load ptr, ptr %63, align 8, !tbaa !25
  call void @pmix_tma_free(ptr noundef %61, ptr noundef %64)
  br label %69

65:                                               ; preds = %52
  %66 = load ptr, ptr %2, align 8, !tbaa !3
  %67 = getelementptr inbounds nuw %struct.pmix_mca_base_var_t, ptr %66, i32 0, i32 14
  %68 = load ptr, ptr %67, align 8, !tbaa !25
  call void @free(ptr noundef %68) #15
  br label %69

69:                                               ; preds = %65, %59
  %70 = load ptr, ptr %2, align 8, !tbaa !3
  %71 = getelementptr inbounds nuw %struct.pmix_mca_base_var_t, ptr %70, i32 0, i32 14
  store ptr null, ptr %71, align 8, !tbaa !25
  br label %72

72:                                               ; preds = %69, %45
  call void @llvm.lifetime.end.p0(i64 8, ptr %3) #15
  br label %73

73:                                               ; preds = %72
  br label %74

74:                                               ; preds = %73, %37, %32
  %75 = load ptr, ptr %2, align 8, !tbaa !3
  %76 = getelementptr inbounds nuw %struct.pmix_mca_base_var_t, ptr %75, i32 0, i32 4
  %77 = load ptr, ptr %76, align 8, !tbaa !35
  %78 = icmp ne ptr null, %77
  br i1 %78, label %79, label %83

79:                                               ; preds = %74
  %80 = load ptr, ptr %2, align 8, !tbaa !3
  %81 = getelementptr inbounds nuw %struct.pmix_mca_base_var_t, ptr %80, i32 0, i32 4
  %82 = load ptr, ptr %81, align 8, !tbaa !35
  call void @free(ptr noundef %82) #15
  br label %83

83:                                               ; preds = %79, %74
  %84 = load ptr, ptr %2, align 8, !tbaa !3
  %85 = getelementptr inbounds nuw %struct.pmix_mca_base_var_t, ptr %84, i32 0, i32 5
  %86 = load ptr, ptr %85, align 8, !tbaa !36
  %87 = icmp ne ptr null, %86
  br i1 %87, label %88, label %92

88:                                               ; preds = %83
  %89 = load ptr, ptr %2, align 8, !tbaa !3
  %90 = getelementptr inbounds nuw %struct.pmix_mca_base_var_t, ptr %89, i32 0, i32 5
  %91 = load ptr, ptr %90, align 8, !tbaa !36
  call void @free(ptr noundef %91) #15
  br label %92

92:                                               ; preds = %88, %83
  %93 = load ptr, ptr %2, align 8, !tbaa !3
  %94 = getelementptr inbounds nuw %struct.pmix_mca_base_var_t, ptr %93, i32 0, i32 6
  %95 = load ptr, ptr %94, align 8, !tbaa !37
  %96 = icmp ne ptr null, %95
  br i1 %96, label %97, label %101

97:                                               ; preds = %92
  %98 = load ptr, ptr %2, align 8, !tbaa !3
  %99 = getelementptr inbounds nuw %struct.pmix_mca_base_var_t, ptr %98, i32 0, i32 6
  %100 = load ptr, ptr %99, align 8, !tbaa !37
  call void @free(ptr noundef %100) #15
  br label %101

101:                                              ; preds = %97, %92
  %102 = load ptr, ptr %2, align 8, !tbaa !3
  %103 = getelementptr inbounds nuw %struct.pmix_mca_base_var_t, ptr %102, i32 0, i32 7
  %104 = load ptr, ptr %103, align 8, !tbaa !38
  %105 = icmp ne ptr null, %104
  br i1 %105, label %106, label %110

106:                                              ; preds = %101
  %107 = load ptr, ptr %2, align 8, !tbaa !3
  %108 = getelementptr inbounds nuw %struct.pmix_mca_base_var_t, ptr %107, i32 0, i32 7
  %109 = load ptr, ptr %108, align 8, !tbaa !38
  call void @free(ptr noundef %109) #15
  br label %110

110:                                              ; preds = %106, %101
  %111 = load ptr, ptr %2, align 8, !tbaa !3
  %112 = getelementptr inbounds nuw %struct.pmix_mca_base_var_t, ptr %111, i32 0, i32 12
  %113 = load ptr, ptr %112, align 8, !tbaa !39
  %114 = icmp ne ptr null, %113
  br i1 %114, label %115, label %119

115:                                              ; preds = %110
  %116 = load ptr, ptr %2, align 8, !tbaa !3
  %117 = getelementptr inbounds nuw %struct.pmix_mca_base_var_t, ptr %116, i32 0, i32 12
  %118 = load ptr, ptr %117, align 8, !tbaa !39
  call void @free(ptr noundef %118) #15
  br label %119

119:                                              ; preds = %115, %110
  br label %120

120:                                              ; preds = %119
  %121 = load ptr, ptr %2, align 8, !tbaa !3
  %122 = getelementptr inbounds nuw %struct.pmix_mca_base_var_t, ptr %121, i32 0, i32 8
  call void @pmix_obj_run_destructors(ptr noundef %122)
  br label %123

123:                                              ; preds = %120
  %124 = load ptr, ptr %2, align 8, !tbaa !3
  %125 = getelementptr inbounds nuw %struct.pmix_mca_base_var_t, ptr %124, i32 0, i32 3
  store i32 9, ptr %125, align 8, !tbaa !8
  ret void
}