; Function Attrs: nounwind uwtable
define internal void @var_destructor(ptr noundef %0) #0 {
  %2 = getelementptr inbounds nuw i8, ptr %0, i64 128
  %3 = load i32, ptr %2, align 8, !tbaa !3
  %.off = add i32 %3, -5
  %switch = icmp ult i32 %.off, 2
  br i1 %switch, label %4, label %11

4:                                                ; preds = %1
  %5 = getelementptr inbounds nuw i8, ptr %0, i64 368
  %6 = load ptr, ptr %5, align 8, !tbaa !29
  %.not = icmp eq ptr %6, null
  br i1 %.not, label %11, label %7

7:                                                ; preds = %4
  %8 = load ptr, ptr %6, align 8, !tbaa !30
  %.not36 = icmp eq ptr %8, null
  br i1 %.not36, label %11, label %9

9:                                                ; preds = %7
  tail call void @free(ptr noundef nonnull %8) #25
  %10 = load ptr, ptr %5, align 8, !tbaa !29
  store ptr null, ptr %10, align 8, !tbaa !30
  br label %11

11:                                               ; preds = %1, %9, %7, %4
  %12 = getelementptr inbounds nuw i8, ptr %0, i64 352
  %13 = load ptr, ptr %12, align 8, !tbaa !31
  %.not37 = icmp eq ptr %13, null
  br i1 %.not37, label %45, label %14

14:                                               ; preds = %11
  %15 = getelementptr inbounds nuw i8, ptr %13, i64 120
  %16 = load i8, ptr %15, align 8, !tbaa !32, !range !36, !noundef !37
  %17 = trunc nuw i8 %16 to i1
  br i1 %17, label %45, label %18

18:                                               ; preds = %14
  %19 = tail call i32 @pthread_mutex_lock(ptr noundef nonnull %13) #25
  %20 = icmp eq i32 %19, 35
  br i1 %20, label %21, label %pmix_obj_update.exit

21:                                               ; preds = %18
  %22 = tail call ptr @__errno_location() #27
  store i32 35, ptr %22, align 4, !tbaa !16
  tail call void @perror(ptr noundef nonnull @.str.71) #28
  tail call void @abort() #29
  unreachable

pmix_obj_update.exit:                             ; preds = %18
  %23 = getelementptr inbounds nuw i8, ptr %13, i64 48
  %24 = load i32, ptr %23, align 8, !tbaa !20
  %25 = add nsw i32 %24, -1
  store i32 %25, ptr %23, align 8, !tbaa !20
  %26 = tail call i32 @pthread_mutex_unlock(ptr noundef nonnull %13) #25
  %27 = icmp eq i32 %25, 0
  br i1 %27, label %28, label %45

28:                                               ; preds = %pmix_obj_update.exit
  %29 = getelementptr inbounds nuw i8, ptr %13, i64 40
  %30 = load ptr, ptr %29, align 8, !tbaa !19
  %31 = getelementptr inbounds nuw i8, ptr %30, i64 48
  %32 = load ptr, ptr %31, align 8, !tbaa !38
  %33 = load ptr, ptr %32, align 8, !tbaa !22
  %.not6.i = icmp eq ptr %33, null
  br i1 %.not6.i, label %pmix_obj_run_destructors.exit, label %.lr.ph.i

.lr.ph.i:                                         ; preds = %28, %.lr.ph.i
  %34 = phi ptr [ %36, %.lr.ph.i ], [ %33, %28 ]
  %.07.i = phi ptr [ %35, %.lr.ph.i ], [ %32, %28 ]
  tail call void %34(ptr noundef nonnull %13) #25
  %35 = getelementptr inbounds nuw i8, ptr %.07.i, i64 8
  %36 = load ptr, ptr %35, align 8, !tbaa !22
  %.not.i = icmp eq ptr %36, null
  br i1 %.not.i, label %pmix_obj_run_destructors.exit, label %.lr.ph.i, !llvm.loop !39

pmix_obj_run_destructors.exit:                    ; preds = %.lr.ph.i, %28
  %37 = getelementptr inbounds nuw i8, ptr %13, i64 96
  %38 = load ptr, ptr %37, align 8, !tbaa !40
  %.not38 = icmp eq ptr %38, null
  br i1 %.not38, label %42, label %39

39:                                               ; preds = %pmix_obj_run_destructors.exit
  %40 = getelementptr inbounds nuw i8, ptr %13, i64 56
  %41 = load ptr, ptr %12, align 8, !tbaa !31
  tail call void %38(ptr noundef nonnull %40, ptr noundef %41) #25
  br label %44

42:                                               ; preds = %pmix_obj_run_destructors.exit
  %43 = load ptr, ptr %12, align 8, !tbaa !31
  tail call void @free(ptr noundef %43) #25
  br label %44

44:                                               ; preds = %42, %39
  store ptr null, ptr %12, align 8, !tbaa !31
  br label %45

45:                                               ; preds = %pmix_obj_update.exit, %44, %14, %11
  %46 = getelementptr inbounds nuw i8, ptr %0, i64 136
  %47 = load ptr, ptr %46, align 8, !tbaa !41
  %.not39 = icmp eq ptr %47, null
  br i1 %.not39, label %49, label %48

48:                                               ; preds = %45
  tail call void @free(ptr noundef nonnull %47) #25
  br label %49

49:                                               ; preds = %48, %45
  %50 = getelementptr inbounds nuw i8, ptr %0, i64 144
  %51 = load ptr, ptr %50, align 8, !tbaa !42
  %.not40 = icmp eq ptr %51, null
  br i1 %.not40, label %53, label %52

52:                                               ; preds = %49
  tail call void @free(ptr noundef nonnull %51) #25
  br label %53

53:                                               ; preds = %52, %49
  %54 = getelementptr inbounds nuw i8, ptr %0, i64 152
  %55 = load ptr, ptr %54, align 8, !tbaa !43
  %.not41 = icmp eq ptr %55, null
  br i1 %.not41, label %57, label %56

56:                                               ; preds = %53
  tail call void @free(ptr noundef nonnull %55) #25
  br label %57

57:                                               ; preds = %56, %53
  %58 = getelementptr inbounds nuw i8, ptr %0, i64 160
  %59 = load ptr, ptr %58, align 8, !tbaa !44
  %.not42 = icmp eq ptr %59, null
  br i1 %.not42, label %61, label %60

60:                                               ; preds = %57
  tail call void @free(ptr noundef nonnull %59) #25
  br label %61

61:                                               ; preds = %60, %57
  %62 = getelementptr inbounds nuw i8, ptr %0, i64 336
  %63 = load ptr, ptr %62, align 8, !tbaa !45
  %.not43 = icmp eq ptr %63, null
  br i1 %.not43, label %65, label %64

64:                                               ; preds = %61
  tail call void @free(ptr noundef nonnull %63) #25
  br label %65

65:                                               ; preds = %61, %64
  %66 = getelementptr inbounds nuw i8, ptr %0, i64 168
  %67 = getelementptr inbounds nuw i8, ptr %0, i64 208
  %68 = load ptr, ptr %67, align 8, !tbaa !19
  %69 = getelementptr inbounds nuw i8, ptr %68, i64 48
  %70 = load ptr, ptr %69, align 8, !tbaa !38
  %71 = load ptr, ptr %70, align 8, !tbaa !22
  %.not6.i45 = icmp eq ptr %71, null
  br i1 %.not6.i45, label %pmix_obj_run_destructors.exit49, label %.lr.ph.i46

.lr.ph.i46:                                       ; preds = %65, %.lr.ph.i46
  %72 = phi ptr [ %74, %.lr.ph.i46 ], [ %71, %65 ]
  %.07.i47 = phi ptr [ %73, %.lr.ph.i46 ], [ %70, %65 ]
  tail call void %72(ptr noundef nonnull %66) #25
  %73 = getelementptr inbounds nuw i8, ptr %.07.i47, i64 8
  %74 = load ptr, ptr %73, align 8, !tbaa !22
  %.not.i48 = icmp eq ptr %74, null
  br i1 %.not.i48, label %pmix_obj_run_destructors.exit49, label %.lr.ph.i46, !llvm.loop !39

pmix_obj_run_destructors.exit49:                  ; preds = %.lr.ph.i46, %65
  store i32 9, ptr %2, align 8, !tbaa !3
  ret void
}